; Function Attrs: mustprogress uwtable
define void @_ZN2cv9Feature2D4readERKNSt7__cxx1112basic_stringIcSt11char_traitsIcESaIcEEE(ptr noundef nonnull align 8 dereferenceable(8) %0, ptr noundef nonnull align 8 dereferenceable(32) %1) local_unnamed_addr #5 align 2 personality ptr @__gxx_personality_v0 {
  %3 = alloca %"class.cv::FileStorage", align 8
  %4 = alloca %"class.std::__cxx11::basic_string", align 8
  %5 = alloca %"class.cv::FileNode", align 8
  call void @llvm.lifetime.start.p0(i64 64, ptr nonnull %3) #20
  call void @llvm.lifetime.start.p0(i64 32, ptr nonnull %4) #20
  %6 = getelementptr inbounds nuw i8, ptr %4, i64 16
  store ptr %6, ptr %4, align 8, !tbaa !48
  %7 = getelementptr inbounds nuw i8, ptr %4, i64 8
  store i64 0, ptr %7, align 8, !tbaa !21
  store i8 0, ptr %6, align 8, !tbaa !49
  invoke void @_ZN2cv11FileStorageC1ERKNSt7__cxx1112basic_stringIcSt11char_traitsIcESaIcEEEiS8_(ptr noundef nonnull align 8 dereferenceable(64) %3, ptr noundef nonnull align 8 dereferenceable(32) %1, i32 noundef 0, ptr noundef nonnull align 8 dereferenceable(32) %4)
          to label %8 unwind label %18

8:                                                ; preds = %2
  %9 = load ptr, ptr %4, align 8, !tbaa !16
  %10 = icmp eq ptr %9, %6
  br i1 %10, label %_ZNKSt7__cxx1112basic_stringIcSt11char_traitsIcESaIcEE11_M_is_localEv.exit.thread.i.i, label %_ZNKSt7__cxx1112basic_stringIcSt11char_traitsIcESaIcEE11_M_is_localEv.exit.i.i

_ZNKSt7__cxx1112basic_stringIcSt11char_traitsIcESaIcEE11_M_is_localEv.exit.thread.i.i: ; preds = %8
  %11 = load i64, ptr %7, align 8, !tbaa !21
  %12 = icmp ult i64 %11, 16
  call void @llvm.assume(i1 %12)
  br label %_ZNSt7__cxx1112basic_stringIcSt11char_traitsIcESaIcEED2Ev.exit

_ZNKSt7__cxx1112basic_stringIcSt11char_traitsIcESaIcEE11_M_is_localEv.exit.i.i: ; preds = %8
  call void @_ZdlPv(ptr noundef %9) #21
  br label %_ZNSt7__cxx1112basic_stringIcSt11char_traitsIcESaIcEED2Ev.exit

_ZNSt7__cxx1112basic_stringIcSt11char_traitsIcESaIcEED2Ev.exit: ; preds = %_ZNKSt7__cxx1112basic_stringIcSt11char_traitsIcESaIcEE11_M_is_localEv.exit.thread.i.i, %_ZNKSt7__cxx1112basic_stringIcSt11char_traitsIcESaIcEE11_M_is_localEv.exit.i.i
  call void @llvm.lifetime.end.p0(i64 32, ptr nonnull %4) #20
  call void @llvm.lifetime.start.p0(i64 24, ptr nonnull %5) #20
  invoke void @_ZNK2cv11FileStorage4rootEi(ptr dead_on_unwind nonnull writable sret(%"class.cv::FileNode") align 8 %5, ptr noundef nonnull align 8 dereferenceable(64) %3, i32 noundef 0)
          to label %13 unwind label %24

13:                                               ; preds = %_ZNSt7__cxx1112basic_stringIcSt11char_traitsIcESaIcEED2Ev.exit
  %14 = load ptr, ptr %0, align 8, !tbaa !3
  %15 = getelementptr inbounds nuw i8, ptr %14, i64 32
  %16 = load ptr, ptr %15, align 8
  invoke void %16(ptr noundef nonnull align 8 dereferenceable(8) %0, ptr noundef nonnull align 8 dereferenceable(24) %5)
          to label %17 unwind label %24

17:                                               ; preds = %13
  call void @llvm.lifetime.end.p0(i64 24, ptr nonnull %5) #20
  call void @_ZN2cv11FileStorageD1Ev(ptr noundef nonnull align 8 dereferenceable(64) %3) #20
  call void @llvm.lifetime.end.p0(i64 64, ptr nonnull %3) #20
  ret void

18:                                               ; preds = %2
  %19 = landingpad { ptr, i32 }
          cleanup
  %20 = load ptr, ptr %4, align 8, !tbaa !16
  %21 = icmp eq ptr %20, %6
  br i1 %21, label %_ZNKSt7__cxx1112basic_stringIcSt11char_traitsIcESaIcEE11_M_is_localEv.exit.thread.i.i6, label %_ZNKSt7__cxx1112basic_stringIcSt11char_traitsIcESaIcEE11_M_is_localEv.exit.i.i5

_ZNKSt7__cxx1112basic_stringIcSt11char_traitsIcESaIcEE11_M_is_localEv.exit.thread.i.i6: ; preds = %18
  %22 = load i64, ptr %7, align 8, !tbaa !21
  %23 = icmp ult i64 %22, 16
  call void @llvm.assume(i1 %23)
  br label %_ZNSt7__cxx1112basic_stringIcSt11char_traitsIcESaIcEED2Ev.exit7

_ZNKSt7__cxx1112basic_stringIcSt11char_traitsIcESaIcEE11_M_is_localEv.exit.i.i5: ; preds = %18
  call void @_ZdlPv(ptr noundef %20) #21
  br label %_ZNSt7__cxx1112basic_stringIcSt11char_traitsIcESaIcEED2Ev.exit7

_ZNSt7__cxx1112basic_stringIcSt11char_traitsIcESaIcEED2Ev.exit7: ; preds = %_ZNKSt7__cxx1112basic_stringIcSt11char_traitsIcESaIcEE11_M_is_localEv.exit.thread.i.i6, %_ZNKSt7__cxx1112basic_stringIcSt11char_traitsIcESaIcEE11_M_is_localEv.exit.i.i5
  call void @llvm.lifetime.end.p0(i64 32, ptr nonnull %4) #20
  br label %26

24:                                               ; preds = %13, %_ZNSt7__cxx1112basic_stringIcSt11char_traitsIcESaIcEED2Ev.exit
  %25 = landingpad { ptr, i32 }
          cleanup
  call void @llvm.lifetime.end.p0(i64 24, ptr nonnull %5) #20
  call void @_ZN2cv11FileStorageD1Ev(ptr noundef nonnull align 8 dereferenceable(64) %3) #20
  br label %26

26:                                               ; preds = %24, %_ZNSt7__cxx1112basic_stringIcSt11char_traitsIcESaIcEED2Ev.exit7
  %.pn = phi { ptr, i32 } [ %25, %24 ], [ %19, %_ZNSt7__cxx1112basic_stringIcSt11char_traitsIcESaIcEED2Ev.exit7 ]
  call void @llvm.lifetime.end.p0(i64 64, ptr nonnull %3) #20
  resume { ptr, i32 } %.pn
}